target datalayout = "e-m:e-p270:32:32-p271:32:32-p272:64:64-i64:64-i128:128-f80:128-n8:16:32:64-S128"
target triple = "x86_64-pc-linux-gnu"

%struct.FunctionCallInfoBaseData = type { ptr, ptr, ptr, i32, i8, i16, [0 x %struct.NullableDatum] }
%struct.NullableDatum = type { i64, i8 }
%struct.GISTENTRY = type { i64, ptr, ptr, i16, i8 }
%union.anon.0 = type { double }

@.str = private unnamed_addr constant [33 x i8] c"unrecognized strategy number: %d\00", align 1
@.str.1 = private unnamed_addr constant [11 x i8] c"gistproc.c\00", align 1
@__func__.gist_bbox_distance = private unnamed_addr constant [19 x i8] c"gist_bbox_distance\00", align 1

; Function Attrs: inlinehint nounwind uwtable
define internal i64 @Int64GetDatum(i64 noundef %0) #2 {
  %2 = alloca i64, align 8
  store i64 %0, ptr %2, align 8
  %3 = load i64, ptr %2, align 8
  ret i64 %3
}

; Function Attrs: inlinehint nounwind uwtable
define internal ptr @DatumGetPointP(i64 noundef %0) #2 {
  %2 = alloca i64, align 8
  store i64 %0, ptr %2, align 8
  %3 = load i64, ptr %2, align 8
  %4 = call ptr @DatumGetPointer(i64 noundef %3)
  ret ptr %4
}

; Function Attrs: inlinehint nounwind uwtable
define internal ptr @DatumGetBoxP(i64 noundef %0) #2 {
  %2 = alloca i64, align 8
  store i64 %0, ptr %2, align 8
  %3 = load i64, ptr %2, align 8
  %4 = call ptr @DatumGetPointer(i64 noundef %3)
  ret ptr %4
}

; Function Attrs: inlinehint nounwind uwtable
define internal i64 @Float8GetDatum(double noundef %0) #2 {
  %2 = alloca double, align 8
  %3 = alloca %union.anon.0, align 8
  store double %0, ptr %2, align 8
  call void @llvm.lifetime.start.p0(i64 8, ptr %3) #10
  %4 = load double, ptr %2, align 8
  store double %4, ptr %3, align 8
  %5 = load i64, ptr %3, align 8
  %6 = call i64 @Int64GetDatum(i64 noundef %5)
  call void @llvm.lifetime.end.p0(i64 8, ptr %3) #10
  ret i64 %6
}

; Function Attrs: nounwind uwtable
define internal double @gist_bbox_distance(ptr noundef %0, i64 noundef %1, i16 noundef zeroext %2) #0 {
  %4 = alloca ptr, align 8
  %5 = alloca i64, align 8
  %6 = alloca i16, align 2
  %7 = alloca double, align 8
  %8 = alloca i16, align 2
  store ptr %0, ptr %4, align 8
  store i64 %1, ptr %5, align 8
  store i16 %2, ptr %6, align 2
  call void @llvm.lifetime.start.p0(i64 8, ptr %7) #10
  call void @llvm.lifetime.start.p0(i64 2, ptr %8) #10
  %9 = load i16, ptr %6, align 2
  %10 = zext i16 %9 to i32
  %11 = sdiv i32 %10, 20
  %12 = trunc i32 %11 to i16
  store i16 %12, ptr %8, align 2
  %13 = load i16, ptr %8, align 2
  %14 = zext i16 %13 to i32
  switch i32 %14, label %23 [
    i32 0, label %15
  ]

15:                                               ; preds = %3
  %16 = load ptr, ptr %4, align 8
  %17 = getelementptr inbounds nuw %struct.GISTENTRY, ptr %16, i32 0, i32 0
  %18 = load i64, ptr %17, align 8
  %19 = call ptr @DatumGetBoxP(i64 noundef %18)
  %20 = load i64, ptr %5, align 8
  %21 = call ptr @DatumGetPointP(i64 noundef %20)
  %22 = call double @computeDistance(i1 noundef zeroext false, ptr noundef %19, ptr noundef %21)
  store double %22, ptr %7, align 8
  br label %36

23:                                               ; preds = %3
  br label %24

24:                                               ; preds = %23
  br i1 true, label %25, label %27

25:                                               ; preds = %24
  %26 = call zeroext i1 @errstart_cold(i32 noundef 21, ptr noundef null) #11
  br i1 %26, label %29, label %33

27:                                               ; preds = %24
  %28 = call zeroext i1 @errstart(i32 noundef 21, ptr noundef null)
  br i1 %28, label %29, label %33

29:                                               ; preds = %27, %25
  %30 = load i16, ptr %6, align 2
  %31 = zext i16 %30 to i32
  %32 = call i32 (ptr, ...) @errmsg_internal(ptr noundef @.str, i32 noundef %31)
  call void @errfinish(ptr noundef @.str.1, i32 noundef 1492, ptr noundef @__func__.gist_bbox_distance)
  br label %33

33:                                               ; preds = %29, %27, %25
  unreachable

34:                                               ; No predecessors!
  br label %35

35:                                               ; preds = %34
  store double 0.000000e+00, ptr %7, align 8
  br label %36

36:                                               ; preds = %35, %15
  %37 = load double, ptr %7, align 8
  call void @llvm.lifetime.end.p0(i64 2, ptr %8) #10
  call void @llvm.lifetime.end.p0(i64 8, ptr %7) #10
  ret double %37
}

; Function Attrs: inlinehint nounwind uwtable
define internal zeroext i16 @DatumGetUInt16(i64 noundef %0) #2 {
  %2 = alloca i64, align 8
  store i64 %0, ptr %2, align 8
  %3 = load i64, ptr %2, align 8
  %4 = trunc i64 %3 to i16
  ret i16 %4
}

; Function Attrs: inlinehint nounwind uwtable
define internal ptr @DatumGetPointer(i64 noundef %0) #2 {
  %2 = alloca i64, align 8
  store i64 %0, ptr %2, align 8
  %3 = load i64, ptr %2, align 8
  %4 = inttoptr i64 %3 to ptr
  ret ptr %4
}

; Function Attrs: nounwind uwtable
define dso_local i64 @gist_circle_distance(ptr noundef %0) #0 {
  %2 = alloca ptr, align 8
  %3 = alloca ptr, align 8
  %4 = alloca i64, align 8
  %5 = alloca i16, align 2
  %6 = alloca ptr, align 8
  %7 = alloca double, align 8
  store ptr %0, ptr %2, align 8
  call void @llvm.lifetime.start.p0(i64 8, ptr %3) #10
  %8 = load ptr, ptr %2, align 8
  %9 = getelementptr inbounds nuw %struct.FunctionCallInfoBaseData, ptr %8, i32 0, i32 6
  %10 = getelementptr inbounds [0 x %struct.NullableDatum], ptr %9, i64 0, i64 0
  %11 = getelementptr inbounds nuw %struct.NullableDatum, ptr %10, i32 0, i32 0
  %12 = load i64, ptr %11, align 8
  %13 = call ptr @DatumGetPointer(i64 noundef %12)
  store ptr %13, ptr %3, align 8
  call void @llvm.lifetime.start.p0(i64 8, ptr %4) #10
  %14 = load ptr, ptr %2, align 8
  %15 = getelementptr inbounds nuw %struct.FunctionCallInfoBaseData, ptr %14, i32 0, i32 6
  %16 = getelementptr inbounds [0 x %struct.NullableDatum], ptr %15, i64 0, i64 1
  %17 = getelementptr inbounds nuw %struct.NullableDatum, ptr %16, i32 0, i32 0
  %18 = load i64, ptr %17, align 8
  store i64 %18, ptr %4, align 8
  call void @llvm.lifetime.start.p0(i64 2, ptr %5) #10
  %19 = load ptr, ptr %2, align 8
  %20 = getelementptr inbounds nuw %struct.FunctionCallInfoBaseData, ptr %19, i32 0, i32 6
  %21 = getelementptr inbounds [0 x %struct.NullableDatum], ptr %20, i64 0, i64 2
  %22 = getelementptr inbounds nuw %struct.NullableDatum, ptr %21, i32 0, i32 0
  %23 = load i64, ptr %22, align 8
  %24 = call zeroext i16 @DatumGetUInt16(i64 noundef %23)
  store i16 %24, ptr %5, align 2
  call void @llvm.lifetime.start.p0(i64 8, ptr %6) #10
  %25 = load ptr, ptr %2, align 8
  %26 = getelementptr inbounds nuw %struct.FunctionCallInfoBaseData, ptr %25, i32 0, i32 6
  %27 = getelementptr inbounds [0 x %struct.NullableDatum], ptr %26, i64 0, i64 4
  %28 = getelementptr inbounds nuw %struct.NullableDatum, ptr %27, i32 0, i32 0
  %29 = load i64, ptr %28, align 8
  %30 = call ptr @DatumGetPointer(i64 noundef %29)
  store ptr %30, ptr %6, align 8
  call void @llvm.lifetime.start.p0(i64 8, ptr %7) #10
  %31 = load ptr, ptr %3, align 8
  %32 = load i64, ptr %4, align 8
  %33 = load i16, ptr %5, align 2
  %34 = call double @gist_bbox_distance(ptr noundef %31, i64 noundef %32, i16 noundef zeroext %33)
  store double %34, ptr %7, align 8
  %35 = load ptr, ptr %6, align 8
  store i8 1, ptr %35, align 1
  %36 = load double, ptr %7, align 8
  %37 = call i64 @Float8GetDatum(double noundef %36)
  call void @llvm.lifetime.end.p0(i64 8, ptr %7) #10
  call void @llvm.lifetime.end.p0(i64 8, ptr %6) #10
  call void @llvm.lifetime.end.p0(i64 2, ptr %5) #10
  call void @llvm.lifetime.end.p0(i64 8, ptr %4) #10
  call void @llvm.lifetime.end.p0(i64 8, ptr %3) #10
  ret i64 %37
}