; Function Attrs: nounwind uwtable
define dso_local i64 @gist_circle_distance(ptr noundef readonly captures(none) %0) local_unnamed_addr #0 {
  %2 = getelementptr inbounds nuw i8, ptr %0, i64 64
  %3 = load i64, ptr %2, align 8
  %4 = trunc i64 %3 to i16
  %cond.i = icmp ult i16 %4, 20
  br i1 %cond.i, label %gist_bbox_distance.exit, label %5

5:                                                ; preds = %1
  %6 = trunc i64 %3 to i32
  %7 = and i32 %6, 65535
  %8 = tail call zeroext i1 @errstart_cold(i32 noundef 21, ptr noundef null) #15
  tail call void @llvm.assume(i1 %8)
  %9 = tail call i32 (ptr, ...) @errmsg_internal(ptr noundef nonnull @.str, i32 noundef %7) #16
  tail call void @errfinish(ptr noundef nonnull @.str.1, i32 noundef 1492, ptr noundef nonnull @__func__.gist_bbox_distance) #16
  unreachable

gist_bbox_distance.exit:                          ; preds = %1
  %10 = getelementptr inbounds nuw i8, ptr %0, i64 96
  %11 = load i64, ptr %10, align 8
  %12 = inttoptr i64 %11 to ptr
  %13 = getelementptr inbounds nuw i8, ptr %0, i64 48
  %14 = load i64, ptr %13, align 8
  %15 = getelementptr inbounds nuw i8, ptr %0, i64 32
  %16 = load i64, ptr %15, align 8
  %17 = inttoptr i64 %16 to ptr
  %18 = load i64, ptr %17, align 8
  %19 = inttoptr i64 %18 to ptr
  %20 = inttoptr i64 %14 to ptr
  %21 = tail call fastcc double @computeDistance(i1 noundef zeroext false, ptr noundef %19, ptr noundef %20)
  store i8 1, ptr %12, align 1
  %22 = bitcast double %21 to i64
  ret i64 %22
}